target datalayout = "e-m:e-p270:32:32-p271:32:32-p272:64:64-i64:64-i128:128-f80:128-n8:16:32:64-S128"
target triple = "x86_64-pc-linux-gnu"

@.str.1 = private unnamed_addr constant [3 x i8] c"SM\00", align 1
@.str.2 = private unnamed_addr constant [3 x i8] c"LA\00", align 1
@.str.4 = private unnamed_addr constant [3 x i8] c"BE\00", align 1

; Function Attrs: mustprogress uwtable
define internal void @_ZL7ssgets_PiPKcS_S_PfS2_S2_(ptr noundef %0, ptr noundef %1, ptr noundef %2, ptr noundef %3, ptr noundef %4, ptr noundef %5, ptr noundef %6) #0 {
  %8 = alloca ptr, align 8
  %9 = alloca ptr, align 8
  %10 = alloca ptr, align 8
  %11 = alloca ptr, align 8
  %12 = alloca ptr, align 8
  %13 = alloca ptr, align 8
  %14 = alloca ptr, align 8
  %15 = alloca i32, align 4
  %16 = alloca i32, align 4
  %17 = alloca i32, align 4
  %18 = alloca i32, align 4
  store ptr %0, ptr %8, align 8, !tbaa !3
  store ptr %1, ptr %9, align 8, !tbaa !8
  store ptr %2, ptr %10, align 8, !tbaa !3
  store ptr %3, ptr %11, align 8, !tbaa !3
  store ptr %4, ptr %12, align 8, !tbaa !41
  store ptr %5, ptr %13, align 8, !tbaa !41
  store ptr %6, ptr %14, align 8, !tbaa !41
  call void @llvm.lifetime.start.p0(i64 4, ptr %15) #8
  store i32 1, ptr %15, align 4, !tbaa !12
  call void @llvm.lifetime.start.p0(i64 4, ptr %16) #8
  call void @llvm.lifetime.start.p0(i64 4, ptr %17) #8
  call void @llvm.lifetime.start.p0(i64 4, ptr %18) #8
  %19 = load ptr, ptr %14, align 8, !tbaa !41
  %20 = getelementptr inbounds float, ptr %19, i32 -1
  store ptr %20, ptr %14, align 8, !tbaa !41
  %21 = load ptr, ptr %13, align 8, !tbaa !41
  %22 = getelementptr inbounds float, ptr %21, i32 -1
  store ptr %22, ptr %13, align 8, !tbaa !41
  %23 = load ptr, ptr %12, align 8, !tbaa !41
  %24 = getelementptr inbounds float, ptr %23, i32 -1
  store ptr %24, ptr %12, align 8, !tbaa !41
  %25 = load ptr, ptr %9, align 8, !tbaa !8
  %26 = call i32 @strncmp(ptr noundef %25, ptr noundef @.str.4, i64 noundef 2) #9
  %27 = icmp ne i32 %26, 0
  br i1 %27, label %104, label %28

28:                                               ; preds = %7
  %29 = load ptr, ptr %10, align 8, !tbaa !3
  %30 = load i32, ptr %29, align 4, !tbaa !12
  %31 = load ptr, ptr %11, align 8, !tbaa !3
  %32 = load i32, ptr %31, align 4, !tbaa !12
  %33 = add nsw i32 %30, %32
  store i32 %33, ptr %16, align 4, !tbaa !12
  %34 = load ptr, ptr %12, align 8, !tbaa !41
  %35 = getelementptr inbounds float, ptr %34, i64 1
  %36 = load ptr, ptr %13, align 8, !tbaa !41
  %37 = getelementptr inbounds float, ptr %36, i64 1
  call void @_ZL7ssortr_PKcPiS1_PfS2_(ptr noundef @.str.2, ptr noundef %15, ptr noundef %16, ptr noundef %35, ptr noundef %37)
  %38 = load ptr, ptr %10, align 8, !tbaa !3
  %39 = load i32, ptr %38, align 4, !tbaa !12
  %40 = sdiv i32 %39, 2
  store i32 %40, ptr %18, align 4, !tbaa !12
  %41 = load ptr, ptr %10, align 8, !tbaa !3
  %42 = load i32, ptr %41, align 4, !tbaa !12
  %43 = icmp sgt i32 %42, 1
  br i1 %43, label %44, label %103

44:                                               ; preds = %28
  %45 = load i32, ptr %18, align 4, !tbaa !12
  %46 = load ptr, ptr %11, align 8, !tbaa !3
  %47 = load i32, ptr %46, align 4, !tbaa !12
  %48 = icmp slt i32 %45, %47
  br i1 %48, label %49, label %51

49:                                               ; preds = %44
  %50 = load i32, ptr %18, align 4, !tbaa !12
  br label %54

51:                                               ; preds = %44
  %52 = load ptr, ptr %11, align 8, !tbaa !3
  %53 = load i32, ptr %52, align 4, !tbaa !12
  br label %54

54:                                               ; preds = %51, %49
  %55 = phi i32 [ %50, %49 ], [ %53, %51 ]
  store i32 %55, ptr %16, align 4, !tbaa !12
  %56 = load i32, ptr %18, align 4, !tbaa !12
  %57 = load ptr, ptr %11, align 8, !tbaa !3
  %58 = load i32, ptr %57, align 4, !tbaa !12
  %59 = icmp sgt i32 %56, %58
  br i1 %59, label %60, label %62

60:                                               ; preds = %54
  %61 = load i32, ptr %18, align 4, !tbaa !12
  br label %65

62:                                               ; preds = %54
  %63 = load ptr, ptr %11, align 8, !tbaa !3
  %64 = load i32, ptr %63, align 4, !tbaa !12
  br label %65

65:                                               ; preds = %62, %60
  %66 = phi i32 [ %61, %60 ], [ %64, %62 ]
  store i32 %66, ptr %17, align 4, !tbaa !12
  %67 = load ptr, ptr %12, align 8, !tbaa !41
  %68 = getelementptr inbounds float, ptr %67, i64 1
  %69 = load ptr, ptr %12, align 8, !tbaa !41
  %70 = load i32, ptr %17, align 4, !tbaa !12
  %71 = add nsw i32 %70, 1
  %72 = sext i32 %71 to i64
  %73 = getelementptr inbounds float, ptr %69, i64 %72
  call void @sswap_(ptr noundef %16, ptr noundef %68, ptr noundef %15, ptr noundef %73, ptr noundef %15)
  %74 = load i32, ptr %18, align 4, !tbaa !12
  %75 = load ptr, ptr %11, align 8, !tbaa !3
  %76 = load i32, ptr %75, align 4, !tbaa !12
  %77 = icmp slt i32 %74, %76
  br i1 %77, label %78, label %80

78:                                               ; preds = %65
  %79 = load i32, ptr %18, align 4, !tbaa !12
  br label %83

80:                                               ; preds = %65
  %81 = load ptr, ptr %11, align 8, !tbaa !3
  %82 = load i32, ptr %81, align 4, !tbaa !12
  br label %83

83:                                               ; preds = %80, %78
  %84 = phi i32 [ %79, %78 ], [ %82, %80 ]
  store i32 %84, ptr %16, align 4, !tbaa !12
  %85 = load i32, ptr %18, align 4, !tbaa !12
  %86 = load ptr, ptr %11, align 8, !tbaa !3
  %87 = load i32, ptr %86, align 4, !tbaa !12
  %88 = icmp sgt i32 %85, %87
  br i1 %88, label %89, label %91

89:                                               ; preds = %83
  %90 = load i32, ptr %18, align 4, !tbaa !12
  br label %94

91:                                               ; preds = %83
  %92 = load ptr, ptr %11, align 8, !tbaa !3
  %93 = load i32, ptr %92, align 4, !tbaa !12
  br label %94

94:                                               ; preds = %91, %89
  %95 = phi i32 [ %90, %89 ], [ %93, %91 ]
  store i32 %95, ptr %17, align 4, !tbaa !12
  %96 = load ptr, ptr %13, align 8, !tbaa !41
  %97 = getelementptr inbounds float, ptr %96, i64 1
  %98 = load ptr, ptr %13, align 8, !tbaa !41
  %99 = load i32, ptr %17, align 4, !tbaa !12
  %100 = add nsw i32 %99, 1
  %101 = sext i32 %100 to i64
  %102 = getelementptr inbounds float, ptr %98, i64 %101
  call void @sswap_(ptr noundef %16, ptr noundef %97, ptr noundef %15, ptr noundef %102, ptr noundef %15)
  br label %103

103:                                              ; preds = %94, %28
  br label %115

104:                                              ; preds = %7
  %105 = load ptr, ptr %10, align 8, !tbaa !3
  %106 = load i32, ptr %105, align 4, !tbaa !12
  %107 = load ptr, ptr %11, align 8, !tbaa !3
  %108 = load i32, ptr %107, align 4, !tbaa !12
  %109 = add nsw i32 %106, %108
  store i32 %109, ptr %16, align 4, !tbaa !12
  %110 = load ptr, ptr %9, align 8, !tbaa !8
  %111 = load ptr, ptr %12, align 8, !tbaa !41
  %112 = getelementptr inbounds float, ptr %111, i64 1
  %113 = load ptr, ptr %13, align 8, !tbaa !41
  %114 = getelementptr inbounds float, ptr %113, i64 1
  call void @_ZL7ssortr_PKcPiS1_PfS2_(ptr noundef %110, ptr noundef %15, ptr noundef %16, ptr noundef %112, ptr noundef %114)
  br label %115

115:                                              ; preds = %104, %103
  %116 = load ptr, ptr %8, align 8, !tbaa !3
  %117 = load i32, ptr %116, align 4, !tbaa !12
  %118 = icmp eq i32 %117, 1
  br i1 %118, label %119, label %134

119:                                              ; preds = %115
  %120 = load ptr, ptr %11, align 8, !tbaa !3
  %121 = load i32, ptr %120, align 4, !tbaa !12
  %122 = icmp sgt i32 %121, 0
  br i1 %122, label %123, label %134

123:                                              ; preds = %119
  %124 = load ptr, ptr %11, align 8, !tbaa !3
  %125 = load ptr, ptr %13, align 8, !tbaa !41
  %126 = getelementptr inbounds float, ptr %125, i64 1
  %127 = load ptr, ptr %12, align 8, !tbaa !41
  %128 = getelementptr inbounds float, ptr %127, i64 1
  call void @_ZL7ssortr_PKcPiS1_PfS2_(ptr noundef @.str.1, ptr noundef %15, ptr noundef %124, ptr noundef %126, ptr noundef %128)
  %129 = load ptr, ptr %11, align 8, !tbaa !3
  %130 = load ptr, ptr %12, align 8, !tbaa !41
  %131 = getelementptr inbounds float, ptr %130, i64 1
  %132 = load ptr, ptr %14, align 8, !tbaa !41
  %133 = getelementptr inbounds float, ptr %132, i64 1
  call void @scopy_(ptr noundef %129, ptr noundef %131, ptr noundef %15, ptr noundef %133, ptr noundef %15)
  br label %134

134:                                              ; preds = %123, %119, %115
  call void @llvm.lifetime.end.p0(i64 4, ptr %18) #8
  call void @llvm.lifetime.end.p0(i64 4, ptr %17) #8
  call void @llvm.lifetime.end.p0(i64 4, ptr %16) #8
  call void @llvm.lifetime.end.p0(i64 4, ptr %15) #8
  ret void
}